; ModuleID = '24/2209.c'
source_filename = "24/2209.c"
target datalayout = "e-m:e-p270:32:32-p271:32:32-p272:64:64-i64:64-f80:128-n8:16:32:64-S128"
target triple = "x86_64-pc-linux-gnu"

@.str = private unnamed_addr constant [3 x i8] c"%c\00", align 1
@.str.1 = private unnamed_addr constant [6 x i8] c"%s\0A%s\00", align 1

; Function Attrs: noinline nounwind uwtable
define dso_local void @main() #0 {
  %1 = alloca [300 x [100 x i8]], align 16
  %2 = alloca [100 x i8], align 16
  %3 = alloca [100 x i8], align 16
  %4 = alloca i32, align 4
  %5 = alloca i32, align 4
  %6 = alloca i32, align 4
  %7 = alloca i32, align 4
  %8 = alloca i32, align 4
  store i32 0, i32* %4, align 4
  store i32 100, i32* %5, align 4
  store i32 0, i32* %6, align 4
  br label %9

9:                                                ; preds = %145, %0
  %10 = load i32, i32* %6, align 4
  %11 = sext i32 %10 to i64
  %12 = getelementptr inbounds [300 x [100 x i8]], [300 x [100 x i8]]* %1, i64 0, i64 %11
  %13 = getelementptr inbounds [100 x i8], [100 x i8]* %12, i64 0, i64 0
  call void @llvm.memset.p0i8.i64(i8* align 4 %13, i8 0, i64 100, i1 false)
  store i32 0, i32* %7, align 4
  br label %14

14:                                               ; preds = %130, %9
  %15 = load i32, i32* %6, align 4
  %16 = sext i32 %15 to i64
  %17 = getelementptr inbounds [300 x [100 x i8]], [300 x [100 x i8]]* %1, i64 0, i64 %16
  %18 = load i32, i32* %7, align 4
  %19 = sext i32 %18 to i64
  %20 = getelementptr inbounds [100 x i8], [100 x i8]* %17, i64 0, i64 %19
  %21 = call i32 (i8*, ...) @__isoc99_scanf(i8* getelementptr inbounds ([3 x i8], [3 x i8]* @.str, i64 0, i64 0), i8* %20)
  %22 = load i32, i32* %6, align 4
  %23 = sext i32 %22 to i64
  %24 = getelementptr inbounds [300 x [100 x i8]], [300 x [100 x i8]]* %1, i64 0, i64 %23
  %25 = load i32, i32* %7, align 4
  %26 = sext i32 %25 to i64
  %27 = getelementptr inbounds [100 x i8], [100 x i8]* %24, i64 0, i64 %26
  %28 = load i8, i8* %27, align 1
  %29 = sext i8 %28 to i32
  %30 = icmp eq i32 %29, 32
  br i1 %30, label %41, label %31

31:                                               ; preds = %14
  %32 = load i32, i32* %6, align 4
  %33 = sext i32 %32 to i64
  %34 = getelementptr inbounds [300 x [100 x i8]], [300 x [100 x i8]]* %1, i64 0, i64 %33
  %35 = load i32, i32* %7, align 4
  %36 = sext i32 %35 to i64
  %37 = getelementptr inbounds [100 x i8], [100 x i8]* %34, i64 0, i64 %36
  %38 = load i8, i8* %37, align 1
  %39 = sext i8 %38 to i32
  %40 = icmp eq i32 %39, 10
  br i1 %40, label %41, label %129

41:                                               ; preds = %31, %14
  %42 = load i32, i32* %6, align 4
  %43 = sext i32 %42 to i64
  %44 = getelementptr inbounds [300 x [100 x i8]], [300 x [100 x i8]]* %1, i64 0, i64 %43
  %45 = load i32, i32* %7, align 4
  %46 = sub nsw i32 %45, 1
  %47 = sext i32 %46 to i64
  %48 = getelementptr inbounds [100 x i8], [100 x i8]* %44, i64 0, i64 %47
  %49 = load i8, i8* %48, align 1
  %50 = sext i8 %49 to i32
  %51 = icmp eq i32 %50, 44
  br i1 %51, label %52, label %90

52:                                               ; preds = %41
  %53 = load i32, i32* %6, align 4
  %54 = sext i32 %53 to i64
  %55 = getelementptr inbounds [300 x [100 x i8]], [300 x [100 x i8]]* %1, i64 0, i64 %54
  %56 = getelementptr inbounds [100 x i8], [100 x i8]* %55, i64 0, i64 0
  %57 = call i64 @strlen(i8* %56) #5
  %58 = sub i64 %57, 1
  %59 = trunc i64 %58 to i32
  store i32 %59, i32* %8, align 4
  %60 = load i32, i32* %8, align 4
  %61 = load i32, i32* %4, align 4
  %62 = icmp sgt i32 %60, %61
  br i1 %62, label %63, label %74

63:                                               ; preds = %52
  %64 = load i32, i32* %8, align 4
  store i32 %64, i32* %4, align 4
  %65 = getelementptr inbounds [100 x i8], [100 x i8]* %2, i64 0, i64 0
  call void @llvm.memset.p0i8.i64(i8* align 16 %65, i8 0, i64 100, i1 false)
  %66 = getelementptr inbounds [100 x i8], [100 x i8]* %2, i64 0, i64 0
  %67 = load i32, i32* %6, align 4
  %68 = sext i32 %67 to i64
  %69 = getelementptr inbounds [300 x [100 x i8]], [300 x [100 x i8]]* %1, i64 0, i64 %68
  %70 = getelementptr inbounds [100 x i8], [100 x i8]* %69, i64 0, i64 0
  %71 = load i32, i32* %8, align 4
  %72 = sext i32 %71 to i64
  %73 = call i8* @strncpy(i8* %66, i8* %70, i64 %72) #6
  br label %74

74:                                               ; preds = %63, %52
  %75 = load i32, i32* %8, align 4
  %76 = load i32, i32* %5, align 4
  %77 = icmp slt i32 %75, %76
  br i1 %77, label %78, label %89

78:                                               ; preds = %74
  %79 = load i32, i32* %8, align 4
  store i32 %79, i32* %5, align 4
  %80 = getelementptr inbounds [100 x i8], [100 x i8]* %3, i64 0, i64 0
  call void @llvm.memset.p0i8.i64(i8* align 16 %80, i8 0, i64 100, i1 false)
  %81 = getelementptr inbounds [100 x i8], [100 x i8]* %3, i64 0, i64 0
  %82 = load i32, i32* %6, align 4
  %83 = sext i32 %82 to i64
  %84 = getelementptr inbounds [300 x [100 x i8]], [300 x [100 x i8]]* %1, i64 0, i64 %83
  %85 = getelementptr inbounds [100 x i8], [100 x i8]* %84, i64 0, i64 0
  %86 = load i32, i32* %8, align 4
  %87 = sext i32 %86 to i64
  %88 = call i8* @strncpy(i8* %81, i8* %85, i64 %87) #6
  br label %89

89:                                               ; preds = %78, %74
  br label %133

90:                                               ; preds = %41
  %91 = load i32, i32* %6, align 4
  %92 = sext i32 %91 to i64
  %93 = getelementptr inbounds [300 x [100 x i8]], [300 x [100 x i8]]* %1, i64 0, i64 %92
  %94 = getelementptr inbounds [100 x i8], [100 x i8]* %93, i64 0, i64 0
  %95 = call i64 @strlen(i8* %94) #5
  %96 = trunc i64 %95 to i32
  store i32 %96, i32* %8, align 4
  %97 = load i32, i32* %8, align 4
  %98 = load i32, i32* %4, align 4
  %99 = icmp sgt i32 %97, %98
  br i1 %99, label %100, label %112

100:                                              ; preds = %90
  %101 = load i32, i32* %8, align 4
  store i32 %101, i32* %4, align 4
  %102 = getelementptr inbounds [100 x i8], [100 x i8]* %2, i64 0, i64 0
  call void @llvm.memset.p0i8.i64(i8* align 16 %102, i8 0, i64 100, i1 false)
  %103 = getelementptr inbounds [100 x i8], [100 x i8]* %2, i64 0, i64 0
  %104 = load i32, i32* %6, align 4
  %105 = sext i32 %104 to i64
  %106 = getelementptr inbounds [300 x [100 x i8]], [300 x [100 x i8]]* %1, i64 0, i64 %105
  %107 = getelementptr inbounds [100 x i8], [100 x i8]* %106, i64 0, i64 0
  %108 = load i32, i32* %8, align 4
  %109 = sub nsw i32 %108, 1
  %110 = sext i32 %109 to i64
  %111 = call i8* @strncpy(i8* %103, i8* %107, i64 %110) #6
  br label %112

112:                                              ; preds = %100, %90
  %113 = load i32, i32* %8, align 4
  %114 = load i32, i32* %5, align 4
  %115 = icmp slt i32 %113, %114
  br i1 %115, label %116, label %128

116:                                              ; preds = %112
  %117 = load i32, i32* %8, align 4
  store i32 %117, i32* %5, align 4
  %118 = getelementptr inbounds [100 x i8], [100 x i8]* %3, i64 0, i64 0
  call void @llvm.memset.p0i8.i64(i8* align 16 %118, i8 0, i64 100, i1 false)
  %119 = getelementptr inbounds [100 x i8], [100 x i8]* %3, i64 0, i64 0
  %120 = load i32, i32* %6, align 4
  %121 = sext i32 %120 to i64
  %122 = getelementptr inbounds [300 x [100 x i8]], [300 x [100 x i8]]* %1, i64 0, i64 %121
  %123 = getelementptr inbounds [100 x i8], [100 x i8]* %122, i64 0, i64 0
  %124 = load i32, i32* %8, align 4
  %125 = sub nsw i32 %124, 1
  %126 = sext i32 %125 to i64
  %127 = call i8* @strncpy(i8* %119, i8* %123, i64 %126) #6
  br label %128

128:                                              ; preds = %116, %112
  br label %133

129:                                              ; preds = %31
  br label %130

130:                                              ; preds = %129
  %131 = load i32, i32* %7, align 4
  %132 = add nsw i32 %131, 1
  store i32 %132, i32* %7, align 4
  br label %14

133:                                              ; preds = %128, %89
  %134 = load i32, i32* %6, align 4
  %135 = sext i32 %134 to i64
  %136 = getelementptr inbounds [300 x [100 x i8]], [300 x [100 x i8]]* %1, i64 0, i64 %135
  %137 = load i32, i32* %7, align 4
  %138 = sext i32 %137 to i64
  %139 = getelementptr inbounds [100 x i8], [100 x i8]* %136, i64 0, i64 %138
  %140 = load i8, i8* %139, align 1
  %141 = sext i8 %140 to i32
  %142 = icmp eq i32 %141, 10
  br i1 %142, label %143, label %144

143:                                              ; preds = %133
  br label %148

144:                                              ; preds = %133
  br label %145

145:                                              ; preds = %144
  %146 = load i32, i32* %6, align 4
  %147 = add nsw i32 %146, 1
  store i32 %147, i32* %6, align 4
  br label %9

148:                                              ; preds = %143
  %149 = getelementptr inbounds [100 x i8], [100 x i8]* %2, i64 0, i64 0
  %150 = getelementptr inbounds [100 x i8], [100 x i8]* %3, i64 0, i64 0
  %151 = call i32 (i8*, ...) @printf(i8* getelementptr inbounds ([6 x i8], [6 x i8]* @.str.1, i64 0, i64 0), i8* %149, i8* %150)
  ret void
}

; Function Attrs: argmemonly nounwind willreturn
declare void @llvm.memset.p0i8.i64(i8* nocapture writeonly, i8, i64, i1 immarg) #1

declare dso_local i32 @__isoc99_scanf(i8*, ...) #2

; Function Attrs: nounwind readonly
declare dso_local i64 @strlen(i8*) #3

; Function Attrs: nounwind
declare dso_local i8* @strncpy(i8*, i8*, i64) #4

declare dso_local i32 @printf(i8*, ...) #2


!llvm.module.flags = !{!0}
!llvm.ident = !{!1}

!0 = !{i32 1, !"wchar_size", i32 4}
!1 = !{!"clang version 10.0.0-4ubuntu1 "}
